; Function Attrs: mustprogress uwtable
define hidden noundef zeroext i1 @_ZN2cv5utils7logging18LogTagConfigParser5parseERKNSt7__cxx1112basic_stringIcSt11char_traitsIcESaIcEEE(ptr noundef nonnull align 8 dereferenceable(168) %0, ptr noundef nonnull align 8 dereferenceable(32) %1) local_unnamed_addr #0 align 2 {
  %3 = tail call noundef nonnull align 8 dereferenceable(32) ptr @_ZNSt7__cxx1112basic_stringIcSt11char_traitsIcESaIcEEaSERKS4_(ptr noundef nonnull align 8 dereferenceable(32) %0, ptr noundef nonnull align 8 dereferenceable(32) %1)
  tail call void @_ZN2cv5utils7logging18LogTagConfigParser13segmentTokensEv(ptr noundef nonnull align 8 dereferenceable(168) %0)
  %4 = getelementptr inbounds i8, ptr %0, i64 144
  %5 = load ptr, ptr %4, align 8
  %6 = getelementptr inbounds i8, ptr %0, i64 152
  %7 = load ptr, ptr %6, align 8
  %8 = icmp eq ptr %5, %7
  ret i1 %8
}